target datalayout = "e-m:e-p270:32:32-p271:32:32-p272:64:64-i64:64-i128:128-f80:128-n8:16:32:64-S128"
target triple = "x86_64-pc-linux-gnu"

@hf_oid_sub = internal global i32 0, align 4
@hf_oid_prefix = internal global i32 0, align 4
@hf_oid_include = internal global i32 0, align 4
@hf_oid_str = internal global i32 0, align 4
@ett_obj_ident = internal global i32 0, align 4
@.str.175 = private unnamed_addr constant [7 x i8] c"(null)\00", align 1
@.str.176 = private unnamed_addr constant [1 x i8] zeroinitializer, align 1
@.str.177 = private unnamed_addr constant [13 x i8] c" (Inclusive)\00", align 1
@.str.178 = private unnamed_addr constant [13 x i8] c" (Exclusive)\00", align 1
@.str.179 = private unnamed_addr constant [15 x i8] c"(Range Start) \00", align 1
@.str.180 = private unnamed_addr constant [15 x i8] c"  (Range End) \00", align 1
@.str.181 = private unnamed_addr constant [26 x i8] c"Object Identifier: %s%s%s\00", align 1
@.str.182 = private unnamed_addr constant [12 x i8] c".1.3.6.1.%d\00", align 1
@.str.183 = private unnamed_addr constant [4 x i8] c".%d\00", align 1

; Function Attrs: null_pointer_is_valid sspstrong uwtable
define internal i32 @convert_oid_to_str(ptr noundef %0, i32 noundef %1, ptr noundef %2, i32 noundef %3, i8 noundef signext %4) #0 {
  %6 = alloca i32, align 4
  %7 = alloca ptr, align 8
  %8 = alloca i32, align 4
  %9 = alloca ptr, align 8
  %10 = alloca i32, align 4
  %11 = alloca i8, align 1
  %12 = alloca i32, align 4
  %13 = alloca i32, align 4
  %14 = alloca i32, align 4
  store ptr %0, ptr %7, align 8
  store i32 %1, ptr %8, align 4
  store ptr %2, ptr %9, align 8
  store i32 %3, ptr %10, align 4
  store i8 %4, ptr %11, align 1
  call void @llvm.lifetime.start.p0(i64 4, ptr %12) #6
  call void @llvm.lifetime.start.p0(i64 4, ptr %13) #6
  store i32 0, ptr %13, align 4
  %15 = load ptr, ptr %7, align 8
  %16 = icmp ne ptr %15, null
  br i1 %16, label %18, label %17

17:                                               ; preds = %5
  store i32 0, ptr %6, align 4
  store i32 1, ptr %14, align 4
  br label %87

18:                                               ; preds = %5
  %19 = load ptr, ptr %9, align 8
  %20 = icmp ne ptr %19, null
  br i1 %20, label %22, label %21

21:                                               ; preds = %18
  store i32 0, ptr %6, align 4
  store i32 1, ptr %14, align 4
  br label %87

22:                                               ; preds = %18
  %23 = load i32, ptr %8, align 4
  %24 = icmp ne i32 %23, 0
  br i1 %24, label %26, label %25

25:                                               ; preds = %22
  store i32 0, ptr %6, align 4
  store i32 1, ptr %14, align 4
  br label %87

26:                                               ; preds = %22
  %27 = load i32, ptr %10, align 4
  %28 = icmp ne i32 %27, 0
  br i1 %28, label %30, label %29

29:                                               ; preds = %26
  store i32 0, ptr %6, align 4
  store i32 1, ptr %14, align 4
  br label %87

30:                                               ; preds = %26
  %31 = load i32, ptr %10, align 4
  %32 = load i32, ptr %8, align 4
  %33 = icmp slt i32 %31, %32
  br i1 %33, label %34, label %35

34:                                               ; preds = %30
  store i32 0, ptr %6, align 4
  store i32 1, ptr %14, align 4
  br label %87

35:                                               ; preds = %30
  %36 = load i8, ptr %11, align 1
  %37 = icmp ne i8 %36, 0
  br i1 %37, label %38, label %49

38:                                               ; preds = %35
  %39 = load ptr, ptr %9, align 8
  %40 = load i32, ptr %10, align 4
  %41 = sext i32 %40 to i64
  %42 = load ptr, ptr %9, align 8
  %43 = call i64 @llvm.objectsize.i64.p0(ptr %42, i1 false, i1 true, i1 true)
  %44 = load i8, ptr %11, align 1
  %45 = sext i8 %44 to i32
  %46 = call i32 (ptr, i64, i32, i64, ptr, ...) @__snprintf_chk(ptr noundef %39, i64 noundef %41, i32 noundef 2, i64 noundef %43, ptr noundef @.str.182, i32 noundef %45)
  %47 = load i32, ptr %13, align 4
  %48 = add i32 %47, %46
  store i32 %48, ptr %13, align 4
  br label %49

49:                                               ; preds = %38, %35
  store i32 0, ptr %12, align 4
  br label %50

50:                                               ; preds = %82, %49
  %51 = load i32, ptr %12, align 4
  %52 = load i32, ptr %8, align 4
  %53 = icmp slt i32 %51, %52
  br i1 %53, label %54, label %58

54:                                               ; preds = %50
  %55 = load i32, ptr %13, align 4
  %56 = load i32, ptr %10, align 4
  %57 = icmp slt i32 %55, %56
  br label %58

58:                                               ; preds = %54, %50
  %59 = phi i1 [ false, %50 ], [ %57, %54 ]
  br i1 %59, label %60, label %85

60:                                               ; preds = %58
  %61 = load ptr, ptr %9, align 8
  %62 = load i32, ptr %13, align 4
  %63 = sext i32 %62 to i64
  %64 = getelementptr i8, ptr %61, i64 %63
  %65 = load i32, ptr %10, align 4
  %66 = load i32, ptr %13, align 4
  %67 = sub i32 %65, %66
  %68 = sext i32 %67 to i64
  %69 = load ptr, ptr %9, align 8
  %70 = load i32, ptr %13, align 4
  %71 = sext i32 %70 to i64
  %72 = getelementptr i8, ptr %69, i64 %71
  %73 = call i64 @llvm.objectsize.i64.p0(ptr %72, i1 false, i1 true, i1 true)
  %74 = load ptr, ptr %7, align 8
  %75 = load i32, ptr %12, align 4
  %76 = sext i32 %75 to i64
  %77 = getelementptr i32, ptr %74, i64 %76
  %78 = load i32, ptr %77, align 4
  %79 = call i32 (ptr, i64, i32, i64, ptr, ...) @__snprintf_chk(ptr noundef %64, i64 noundef %68, i32 noundef 2, i64 noundef %73, ptr noundef @.str.183, i32 noundef %78)
  %80 = load i32, ptr %13, align 4
  %81 = add i32 %80, %79
  store i32 %81, ptr %13, align 4
  br label %82

82:                                               ; preds = %60
  %83 = load i32, ptr %12, align 4
  %84 = add i32 %83, 1
  store i32 %84, ptr %12, align 4
  br label %50, !llvm.loop !16

85:                                               ; preds = %58
  %86 = load i32, ptr %13, align 4
  store i32 %86, ptr %6, align 4
  store i32 1, ptr %14, align 4
  br label %87

87:                                               ; preds = %85, %34, %29, %25, %21, %17
  call void @llvm.lifetime.end.p0(i64 4, ptr %13) #6
  call void @llvm.lifetime.end.p0(i64 4, ptr %12) #6
  %88 = load i32, ptr %6, align 4
  ret i32 %88
}

; Function Attrs: alwaysinline nounwind
define internal ptr @memset.inline(ptr %0, i32 %1, i64 %2) #3 {
  %4 = alloca ptr, align 8
  %5 = alloca i32, align 4
  %6 = alloca i64, align 8
  store ptr %0, ptr %4, align 8
  store i32 %1, ptr %5, align 4
  store i64 %2, ptr %6, align 8
  %7 = load ptr, ptr %4, align 8
  %8 = load i32, ptr %5, align 4
  %9 = load i64, ptr %6, align 8
  %10 = load ptr, ptr %4, align 8
  %11 = call i64 @llvm.objectsize.i64.p0(ptr %10, i1 false, i1 true, i1 true)
  %12 = call ptr @__memset_chk(ptr noundef %7, i32 noundef %8, i64 noundef %9, i64 noundef %11) #6
  ret ptr %12
}

; Function Attrs: null_pointer_is_valid sspstrong uwtable
define internal i32 @dissect_object_id(ptr noundef %0, ptr noundef %1, i32 noundef %2, i8 noundef zeroext %3, i32 noundef %4) #0 {
  %6 = alloca i32, align 4
  %7 = alloca ptr, align 8
  %8 = alloca ptr, align 8
  %9 = alloca i32, align 4
  %10 = alloca i8, align 1
  %11 = alloca i32, align 4
  %12 = alloca i8, align 1
  %13 = alloca i8, align 1
  %14 = alloca i8, align 1
  %15 = alloca ptr, align 8
  %16 = alloca [2048 x i32], align 16
  %17 = alloca [2048 x i8], align 16
  %18 = alloca i32, align 4
  %19 = alloca ptr, align 8
  %20 = alloca ptr, align 8
  %21 = alloca i32, align 4
  store ptr %0, ptr %7, align 8
  store ptr %1, ptr %8, align 8
  store i32 %2, ptr %9, align 4
  store i8 %3, ptr %10, align 1
  store i32 %4, ptr %11, align 4
  call void @llvm.lifetime.start.p0(i64 1, ptr %12) #6
  call void @llvm.lifetime.start.p0(i64 1, ptr %13) #6
  call void @llvm.lifetime.start.p0(i64 1, ptr %14) #6
  call void @llvm.lifetime.start.p0(i64 8, ptr %15) #6
  call void @llvm.lifetime.start.p0(i64 8192, ptr %16) #6
  call void @llvm.lifetime.start.p0(i64 2048, ptr %17) #6
  call void @llvm.lifetime.start.p0(i64 4, ptr %18) #6
  %22 = getelementptr inbounds [2048 x i32], ptr %16, i64 0, i64 0
  %23 = call ptr @memset.inline(ptr noundef %22, i32 noundef 0, i64 noundef 8192) #6
  %24 = getelementptr inbounds [2048 x i8], ptr %17, i64 0, i64 0
  %25 = call ptr @memset.inline(ptr noundef %24, i32 noundef 0, i64 noundef 2048) #6
  %26 = load ptr, ptr %7, align 8
  %27 = load i32, ptr %9, align 4
  %28 = call zeroext i8 @tvb_get_uint8(ptr noundef %26, i32 noundef %27)
  store i8 %28, ptr %12, align 1
  %29 = load ptr, ptr %7, align 8
  %30 = load i32, ptr %9, align 4
  %31 = add i32 %30, 1
  %32 = call zeroext i8 @tvb_get_uint8(ptr noundef %29, i32 noundef %31)
  store i8 %32, ptr %13, align 1
  %33 = load ptr, ptr %7, align 8
  %34 = load i32, ptr %9, align 4
  %35 = add i32 %34, 2
  %36 = call zeroext i8 @tvb_get_uint8(ptr noundef %33, i32 noundef %35)
  store i8 %36, ptr %14, align 1
  %37 = load ptr, ptr %7, align 8
  %38 = load i32, ptr %9, align 4
  %39 = add i32 %38, 3
  %40 = call zeroext i8 @tvb_get_uint8(ptr noundef %37, i32 noundef %39)
  store i32 0, ptr %18, align 4
  br label %41

41:                                               ; preds = %72, %5
  %42 = load i32, ptr %18, align 4
  %43 = load i8, ptr %12, align 1
  %44 = zext i8 %43 to i32
  %45 = icmp slt i32 %42, %44
  br i1 %45, label %46, label %75

46:                                               ; preds = %41
  %47 = load i8, ptr %10, align 1
  %48 = zext i8 %47 to i32
  %49 = and i32 %48, 16
  %50 = icmp ne i32 %49, 0
  br i1 %50, label %51, label %59

51:                                               ; preds = %46
  %52 = load ptr, ptr %7, align 8
  %53 = load i32, ptr %9, align 4
  %54 = add i32 %53, 4
  %55 = load i32, ptr %18, align 4
  %56 = mul i32 %55, 4
  %57 = add i32 %54, %56
  %58 = call i32 @tvb_get_ntohl(ptr noundef %52, i32 noundef %57)
  br label %67

59:                                               ; preds = %46
  %60 = load ptr, ptr %7, align 8
  %61 = load i32, ptr %9, align 4
  %62 = add i32 %61, 4
  %63 = load i32, ptr %18, align 4
  %64 = mul i32 %63, 4
  %65 = add i32 %62, %64
  %66 = call i32 @tvb_get_letohl(ptr noundef %60, i32 noundef %65)
  br label %67

67:                                               ; preds = %59, %51
  %68 = phi i32 [ %58, %51 ], [ %66, %59 ]
  %69 = load i32, ptr %18, align 4
  %70 = sext i32 %69 to i64
  %71 = getelementptr [2048 x i32], ptr %16, i64 0, i64 %70
  store i32 %68, ptr %71, align 4
  br label %72

72:                                               ; preds = %67
  %73 = load i32, ptr %18, align 4
  %74 = add i32 %73, 1
  store i32 %74, ptr %18, align 4
  br label %41, !llvm.loop !15

75:                                               ; preds = %41
  %76 = getelementptr [2048 x i32], ptr %16, i64 0, i64 0
  %77 = load i8, ptr %12, align 1
  %78 = zext i8 %77 to i32
  %79 = getelementptr [2048 x i8], ptr %17, i64 0, i64 0
  %80 = load i8, ptr %13, align 1
  %81 = call i32 @convert_oid_to_str(ptr noundef %76, i32 noundef %78, ptr noundef %79, i32 noundef 2048, i8 noundef signext %80)
  %82 = icmp ne i32 %81, 0
  br i1 %82, label %86, label %83

83:                                               ; preds = %75
  %84 = getelementptr [2048 x i8], ptr %17, i64 0, i64 0
  %85 = call i32 (ptr, i64, i32, i64, ptr, ...) @__snprintf_chk(ptr noundef %84, i64 noundef 2048, i32 noundef 2, i64 noundef 2048, ptr noundef @.str.175)
  br label %86

86:                                               ; preds = %83, %75
  %87 = load ptr, ptr %8, align 8
  %88 = icmp ne ptr %87, null
  br i1 %88, label %89, label %111

89:                                               ; preds = %86
  call void @llvm.lifetime.start.p0(i64 8, ptr %19) #6
  store ptr @.str.176, ptr %19, align 8
  call void @llvm.lifetime.start.p0(i64 8, ptr %20) #6
  %90 = load i8, ptr %14, align 1
  %91 = zext i8 %90 to i32
  %92 = icmp ne i32 %91, 0
  %93 = select i1 %92, ptr @.str.177, ptr @.str.178
  store ptr %93, ptr %20, align 8
  %94 = load i32, ptr %11, align 4
  switch i32 %94, label %97 [
    i32 0, label %95
    i32 1, label %96
  ]

95:                                               ; preds = %89
  store ptr @.str.179, ptr %19, align 8
  br label %98

96:                                               ; preds = %89
  store ptr @.str.180, ptr %19, align 8
  br label %98

97:                                               ; preds = %89
  store ptr @.str.176, ptr %20, align 8
  br label %98

98:                                               ; preds = %97, %96, %95
  %99 = load ptr, ptr %8, align 8
  %100 = load ptr, ptr %7, align 8
  %101 = load i32, ptr %9, align 4
  %102 = load i8, ptr %12, align 1
  %103 = zext i8 %102 to i32
  %104 = mul i32 %103, 4
  %105 = add i32 4, %104
  %106 = load i32, ptr @ett_obj_ident, align 4
  %107 = load ptr, ptr %19, align 8
  %108 = getelementptr inbounds [2048 x i8], ptr %17, i64 0, i64 0
  %109 = load ptr, ptr %20, align 8
  %110 = call ptr (ptr, ptr, i32, i32, i32, ptr, ptr, ...) @proto_tree_add_subtree_format(ptr noundef %99, ptr noundef %100, i32 noundef %101, i32 noundef %105, i32 noundef %106, ptr noundef null, ptr noundef @.str.181, ptr noundef %107, ptr noundef %108, ptr noundef %109)
  store ptr %110, ptr %15, align 8
  call void @llvm.lifetime.end.p0(i64 8, ptr %20) #6
  call void @llvm.lifetime.end.p0(i64 8, ptr %19) #6
  br label %113

111:                                              ; preds = %86
  %112 = load i32, ptr %9, align 4
  store i32 %112, ptr %6, align 4
  store i32 1, ptr %21, align 4
  br label %151

113:                                              ; preds = %98
  %114 = load ptr, ptr %15, align 8
  %115 = load i32, ptr @hf_oid_sub, align 4
  %116 = load ptr, ptr %7, align 8
  %117 = load i32, ptr %9, align 4
  %118 = load i8, ptr %12, align 1
  %119 = zext i8 %118 to i32
  %120 = call ptr @proto_tree_add_uint(ptr noundef %114, i32 noundef %115, ptr noundef %116, i32 noundef %117, i32 noundef 1, i32 noundef %119)
  %121 = load ptr, ptr %15, align 8
  %122 = load i32, ptr @hf_oid_prefix, align 4
  %123 = load ptr, ptr %7, align 8
  %124 = load i32, ptr %9, align 4
  %125 = add i32 %124, 1
  %126 = load i8, ptr %13, align 1
  %127 = zext i8 %126 to i32
  %128 = call ptr @proto_tree_add_uint(ptr noundef %121, i32 noundef %122, ptr noundef %123, i32 noundef %125, i32 noundef 1, i32 noundef %127)
  %129 = load ptr, ptr %15, align 8
  %130 = load i32, ptr @hf_oid_include, align 4
  %131 = load ptr, ptr %7, align 8
  %132 = load i32, ptr %9, align 4
  %133 = add i32 %132, 2
  %134 = load i8, ptr %14, align 1
  %135 = zext i8 %134 to i64
  %136 = call ptr @proto_tree_add_boolean(ptr noundef %129, i32 noundef %130, ptr noundef %131, i32 noundef %133, i32 noundef 1, i64 noundef %135)
  %137 = load ptr, ptr %15, align 8
  %138 = load i32, ptr @hf_oid_str, align 4
  %139 = load ptr, ptr %7, align 8
  %140 = load i32, ptr %9, align 4
  %141 = add i32 %140, 4
  %142 = load i8, ptr %12, align 1
  %143 = zext i8 %142 to i32
  %144 = mul i32 %143, 4
  %145 = getelementptr inbounds [2048 x i8], ptr %17, i64 0, i64 0
  %146 = call ptr @proto_tree_add_string(ptr noundef %137, i32 noundef %138, ptr noundef %139, i32 noundef %141, i32 noundef %144, ptr noundef %145)
  %147 = load i8, ptr %12, align 1
  %148 = zext i8 %147 to i32
  %149 = mul i32 %148, 4
  %150 = add i32 4, %149
  store i32 %150, ptr %6, align 4
  store i32 1, ptr %21, align 4
  br label %151

151:                                              ; preds = %113, %111
  call void @llvm.lifetime.end.p0(i64 4, ptr %18) #6
  call void @llvm.lifetime.end.p0(i64 2048, ptr %17) #6
  call void @llvm.lifetime.end.p0(i64 8192, ptr %16) #6
  call void @llvm.lifetime.end.p0(i64 8, ptr %15) #6
  call void @llvm.lifetime.end.p0(i64 1, ptr %14) #6
  call void @llvm.lifetime.end.p0(i64 1, ptr %13) #6
  call void @llvm.lifetime.end.p0(i64 1, ptr %12) #6
  %152 = load i32, ptr %6, align 4
  ret i32 %152
}