; Function Attrs: null_pointer_is_valid sspstrong uwtable
define internal fastcc noundef i32 @dissect_object_id(ptr noundef %0, ptr noundef %1, i32 noundef %2, i8 noundef zeroext %3, i32 noundef range(i32 0, 3) %4) unnamed_addr #0 {
  %6 = alloca [2048 x i32], align 16
  %7 = alloca [2048 x i8], align 16
  call void @llvm.lifetime.start.p0(i64 8192, ptr nonnull %6) #6
  call void @llvm.lifetime.start.p0(i64 2048, ptr nonnull %7) #6
  call void @llvm.memset.p0.i64(ptr noundef nonnull align 16 dereferenceable(8192) %6, i8 noundef 0, i64 noundef 8192, i1 noundef false) #6
  call void @llvm.memset.p0.i64(ptr noundef nonnull align 16 dereferenceable(2048) %7, i8 noundef 0, i64 noundef 2048, i1 noundef false) #6
  %8 = tail call zeroext i8 @tvb_get_uint8(ptr noundef %0, i32 noundef %2)
  %9 = add i32 %2, 1
  %10 = tail call zeroext i8 @tvb_get_uint8(ptr noundef %0, i32 noundef %9)
  %11 = add i32 %2, 2
  %12 = tail call zeroext i8 @tvb_get_uint8(ptr noundef %0, i32 noundef %11)
  %13 = add i32 %2, 3
  %14 = tail call zeroext i8 @tvb_get_uint8(ptr noundef %0, i32 noundef %13)
  %15 = zext i8 %8 to i32
  %.not63 = icmp eq i8 %8, 0
  br i1 %.not63, label %convert_oid_to_str.exit.thread, label %.lr.ph

.lr.ph:                                           ; preds = %5
  %16 = and i8 %3, 16
  %.not55 = icmp eq i8 %16, 0
  %17 = add i32 %2, 4
  %wide.trip.count69 = zext i8 %8 to i64
  br i1 %.not55, label %.lr.ph.split.us, label %.lr.ph.split

.lr.ph.split.us:                                  ; preds = %.lr.ph, %.lr.ph.split.us
  %indvars.iv66 = phi i64 [ %indvars.iv.next67, %.lr.ph.split.us ], [ 0, %.lr.ph ]
  %indvars.iv66.tr = trunc i64 %indvars.iv66 to i32
  %18 = shl i32 %indvars.iv66.tr, 2
  %19 = add i32 %17, %18
  %20 = tail call i32 @tvb_get_letohl(ptr noundef %0, i32 noundef %19)
  %21 = getelementptr [2048 x i32], ptr %6, i64 0, i64 %indvars.iv66
  store i32 %20, ptr %21, align 4
  %indvars.iv.next67 = add nuw nsw i64 %indvars.iv66, 1
  %exitcond70.not = icmp eq i64 %indvars.iv.next67, %wide.trip.count69
  br i1 %exitcond70.not, label %._crit_edge, label %.lr.ph.split.us, !llvm.loop !15

.lr.ph.split:                                     ; preds = %.lr.ph, %.lr.ph.split
  %indvars.iv = phi i64 [ %indvars.iv.next, %.lr.ph.split ], [ 0, %.lr.ph ]
  %indvars.iv.tr = trunc i64 %indvars.iv to i32
  %22 = shl i32 %indvars.iv.tr, 2
  %23 = add i32 %17, %22
  %24 = tail call i32 @tvb_get_ntohl(ptr noundef %0, i32 noundef %23)
  %25 = getelementptr [2048 x i32], ptr %6, i64 0, i64 %indvars.iv
  store i32 %24, ptr %25, align 4
  %indvars.iv.next = add nuw nsw i64 %indvars.iv, 1
  %exitcond.not = icmp eq i64 %indvars.iv.next, %wide.trip.count69
  br i1 %exitcond.not, label %._crit_edge, label %.lr.ph.split, !llvm.loop !15

._crit_edge:                                      ; preds = %.lr.ph.split, %.lr.ph.split.us
  %.not36.i = icmp eq i8 %10, 0
  br i1 %.not36.i, label %.lr.ph.preheader.i, label %26

26:                                               ; preds = %._crit_edge
  %27 = sext i8 %10 to i32
  %28 = call i32 (ptr, i64, i32, i64, ptr, ...) @__snprintf_chk(ptr noundef nonnull %7, i64 noundef 2048, i32 noundef 2, i64 noundef 2048, ptr noundef nonnull @.str.182, i32 noundef %27)
  %29 = icmp slt i32 %28, 2048
  br i1 %29, label %.lr.ph.preheader.i, label %convert_oid_to_str.exit.thread58

.lr.ph.preheader.i:                               ; preds = %26, %._crit_edge
  %.042.i = phi i32 [ %28, %26 ], [ 0, %._crit_edge ]
  %30 = zext i8 %8 to i64
  br label %.lr.ph.i

.lr.ph.i:                                         ; preds = %.lr.ph.i, %.lr.ph.preheader.i
  %indvars.iv.i = phi i64 [ 0, %.lr.ph.preheader.i ], [ %indvars.iv.next.i, %.lr.ph.i ]
  %.139.i = phi i32 [ %.042.i, %.lr.ph.preheader.i ], [ %41, %.lr.ph.i ]
  %31 = sext i32 %.139.i to i64
  %32 = getelementptr i8, ptr %7, i64 %31
  %33 = sub i32 2048, %.139.i
  %34 = sext i32 %33 to i64
  %35 = sub nsw i64 2048, %31
  %36 = icmp ugt i32 %.139.i, 2048
  %37 = select i1 %36, i64 0, i64 %35
  %38 = getelementptr i32, ptr %6, i64 %indvars.iv.i
  %39 = load i32, ptr %38, align 4
  %40 = call i32 (ptr, i64, i32, i64, ptr, ...) @__snprintf_chk(ptr noundef %32, i64 noundef %34, i32 noundef 2, i64 noundef %37, ptr noundef nonnull @.str.183, i32 noundef %39)
  %41 = add i32 %40, %.139.i
  %indvars.iv.next.i = add nuw nsw i64 %indvars.iv.i, 1
  %42 = icmp samesign ult i64 %indvars.iv.next.i, %30
  %43 = icmp slt i32 %41, 2048
  %44 = select i1 %42, i1 %43, i1 false
  br i1 %44, label %.lr.ph.i, label %convert_oid_to_str.exit, !llvm.loop !16

convert_oid_to_str.exit:                          ; preds = %.lr.ph.i
  %.not = icmp eq i32 %41, 0
  br i1 %.not, label %convert_oid_to_str.exit.thread, label %convert_oid_to_str.exit.thread58

convert_oid_to_str.exit.thread:                   ; preds = %5, %convert_oid_to_str.exit
  %45 = call i32 (ptr, i64, i32, i64, ptr, ...) @__snprintf_chk(ptr noundef nonnull %7, i64 noundef 2048, i32 noundef 2, i64 noundef 2048, ptr noundef nonnull @.str.175)
  br label %convert_oid_to_str.exit.thread58

convert_oid_to_str.exit.thread58:                 ; preds = %26, %convert_oid_to_str.exit.thread, %convert_oid_to_str.exit
  %.not53 = icmp eq ptr %1, null
  br i1 %.not53, label %66, label %46

46:                                               ; preds = %convert_oid_to_str.exit.thread58
  %.not54 = icmp eq i8 %12, 0
  %47 = select i1 %.not54, ptr @.str.178, ptr @.str.177
  switch i32 %4, label %49 [
    i32 0, label %50
    i32 1, label %48
  ]

48:                                               ; preds = %46
  br label %50

49:                                               ; preds = %46
  br label %50

50:                                               ; preds = %46, %49, %48
  %.048 = phi ptr [ @.str.176, %49 ], [ @.str.180, %48 ], [ @.str.179, %46 ]
  %.0 = phi ptr [ @.str.176, %49 ], [ %47, %48 ], [ %47, %46 ]
  %51 = shl nuw nsw i32 %15, 2
  %52 = add nuw nsw i32 %51, 4
  %53 = load i32, ptr @ett_obj_ident, align 4
  %54 = call ptr (ptr, ptr, i32, i32, i32, ptr, ptr, ...) @proto_tree_add_subtree_format(ptr noundef nonnull %1, ptr noundef %0, i32 noundef %2, i32 noundef %52, i32 noundef %53, ptr noundef null, ptr noundef nonnull @.str.181, ptr noundef nonnull %.048, ptr noundef nonnull %7, ptr noundef nonnull %.0)
  %55 = load i32, ptr @hf_oid_sub, align 4
  %56 = call ptr @proto_tree_add_uint(ptr noundef %54, i32 noundef %55, ptr noundef %0, i32 noundef %2, i32 noundef 1, i32 noundef %15)
  %57 = load i32, ptr @hf_oid_prefix, align 4
  %58 = zext i8 %10 to i32
  %59 = call ptr @proto_tree_add_uint(ptr noundef %54, i32 noundef %57, ptr noundef %0, i32 noundef %9, i32 noundef 1, i32 noundef %58)
  %60 = load i32, ptr @hf_oid_include, align 4
  %61 = zext i8 %12 to i64
  %62 = call ptr @proto_tree_add_boolean(ptr noundef %54, i32 noundef %60, ptr noundef %0, i32 noundef %11, i32 noundef 1, i64 noundef %61)
  %63 = load i32, ptr @hf_oid_str, align 4
  %64 = add i32 %2, 4
  %65 = call ptr @proto_tree_add_string(ptr noundef %54, i32 noundef %63, ptr noundef %0, i32 noundef %64, i32 noundef %51, ptr noundef nonnull %7)
  br label %66

66:                                               ; preds = %convert_oid_to_str.exit.thread58, %50
  %.050 = phi i32 [ %52, %50 ], [ %2, %convert_oid_to_str.exit.thread58 ]
  call void @llvm.lifetime.end.p0(i64 2048, ptr nonnull %7) #6
  call void @llvm.lifetime.end.p0(i64 8192, ptr nonnull %6) #6
  ret i32 %.050
}